; ModuleID = '20/444.c'
source_filename = "20/444.c"
target datalayout = "e-m:e-p270:32:32-p271:32:32-p272:64:64-i64:64-f80:128-n8:16:32:64-S128"
target triple = "x86_64-pc-linux-gnu"

@.str = private unnamed_addr constant [5 x i8] c"%s%s\00", align 1
@str = common dso_local global [10 x i8] zeroinitializer, align 1
@substr = common dso_local global [3 x i8] zeroinitializer, align 1
@.str.1 = private unnamed_addr constant [3 x i8] c"%c\00", align 1
@a = common dso_local global [13 x i8] zeroinitializer, align 1
@.str.2 = private unnamed_addr constant [2 x i8] c"\0A\00", align 1

; Function Attrs: noinline nounwind uwtable
define dso_local void @main() #0 {
  %1 = alloca i32, align 4
  %2 = alloca i32, align 4
  br label %3

3:                                                ; preds = %25, %0
  %4 = call i32 (i8*, ...) @__isoc99_scanf(i8* getelementptr inbounds ([5 x i8], [5 x i8]* @.str, i64 0, i64 0), i8* getelementptr inbounds ([10 x i8], [10 x i8]* @str, i64 0, i64 0), i8* getelementptr inbounds ([3 x i8], [3 x i8]* @substr, i64 0, i64 0))
  %5 = icmp ne i32 %4, -1
  br i1 %5, label %6, label %27

6:                                                ; preds = %3
  %7 = call i64 @strlen(i8* getelementptr inbounds ([10 x i8], [10 x i8]* @str, i64 0, i64 0)) #3
  %8 = trunc i64 %7 to i32
  store i32 %8, i32* %1, align 4
  %9 = load i32, i32* %1, align 4
  call void @F(i32 %9)
  store i32 0, i32* %2, align 4
  br label %10

10:                                               ; preds = %22, %6
  %11 = load i32, i32* %2, align 4
  %12 = load i32, i32* %1, align 4
  %13 = add nsw i32 %12, 2
  %14 = icmp sle i32 %11, %13
  br i1 %14, label %15, label %25

15:                                               ; preds = %10
  %16 = load i32, i32* %2, align 4
  %17 = sext i32 %16 to i64
  %18 = getelementptr inbounds [13 x i8], [13 x i8]* @a, i64 0, i64 %17
  %19 = load i8, i8* %18, align 1
  %20 = sext i8 %19 to i32
  %21 = call i32 (i8*, ...) @printf(i8* getelementptr inbounds ([3 x i8], [3 x i8]* @.str.1, i64 0, i64 0), i32 %20)
  br label %22

22:                                               ; preds = %15
  %23 = load i32, i32* %2, align 4
  %24 = add nsw i32 %23, 1
  store i32 %24, i32* %2, align 4
  br label %10

25:                                               ; preds = %10
  %26 = call i32 (i8*, ...) @printf(i8* getelementptr inbounds ([2 x i8], [2 x i8]* @.str.2, i64 0, i64 0))
  br label %3

27:                                               ; preds = %3
  ret void
}

declare dso_local i32 @__isoc99_scanf(i8*, ...) #1

; Function Attrs: nounwind readonly
declare dso_local i64 @strlen(i8*) #2

; Function Attrs: noinline nounwind uwtable
define dso_local void @F(i32 %0) #0 {
  %2 = alloca i32, align 4
  %3 = alloca i32, align 4
  %4 = alloca i32, align 4
  %5 = alloca i32, align 4
  %6 = alloca i32, align 4
  %7 = alloca i32, align 4
  store i32 %0, i32* %2, align 4
  store i32 0, i32* %6, align 4
  store i32 0, i32* %4, align 4
  br label %8

8:                                                ; preds = %44, %1
  %9 = load i32, i32* %4, align 4
  %10 = load i32, i32* %2, align 4
  %11 = icmp slt i32 %9, %10
  br i1 %11, label %12, label %47

12:                                               ; preds = %8
  store i32 0, i32* %7, align 4
  %13 = load i32, i32* %4, align 4
  %14 = add nsw i32 %13, 1
  store i32 %14, i32* %5, align 4
  br label %15

15:                                               ; preds = %35, %12
  %16 = load i32, i32* %5, align 4
  %17 = load i32, i32* %2, align 4
  %18 = icmp slt i32 %16, %17
  br i1 %18, label %19, label %38

19:                                               ; preds = %15
  %20 = load i32, i32* %4, align 4
  %21 = sext i32 %20 to i64
  %22 = getelementptr inbounds [10 x i8], [10 x i8]* @str, i64 0, i64 %21
  %23 = load i8, i8* %22, align 1
  %24 = sext i8 %23 to i32
  %25 = load i32, i32* %5, align 4
  %26 = sext i32 %25 to i64
  %27 = getelementptr inbounds [10 x i8], [10 x i8]* @str, i64 0, i64 %26
  %28 = load i8, i8* %27, align 1
  %29 = sext i8 %28 to i32
  %30 = icmp slt i32 %24, %29
  br i1 %30, label %31, label %34

31:                                               ; preds = %19
  %32 = load i32, i32* %7, align 4
  %33 = add nsw i32 %32, 1
  store i32 %33, i32* %7, align 4
  br label %34

34:                                               ; preds = %31, %19
  br label %35

35:                                               ; preds = %34
  %36 = load i32, i32* %5, align 4
  %37 = add nsw i32 %36, 1
  store i32 %37, i32* %5, align 4
  br label %15

38:                                               ; preds = %15
  %39 = load i32, i32* %7, align 4
  %40 = icmp eq i32 %39, 0
  br i1 %40, label %41, label %43

41:                                               ; preds = %38
  %42 = load i32, i32* %4, align 4
  store i32 %42, i32* %3, align 4
  br label %47

43:                                               ; preds = %38
  br label %44

44:                                               ; preds = %43
  %45 = load i32, i32* %4, align 4
  %46 = add nsw i32 %45, 1
  store i32 %46, i32* %4, align 4
  br label %8

47:                                               ; preds = %41, %8
  store i32 0, i32* %4, align 4
  br label %48

48:                                               ; preds = %60, %47
  %49 = load i32, i32* %4, align 4
  %50 = load i32, i32* %3, align 4
  %51 = icmp sle i32 %49, %50
  br i1 %51, label %52, label %63

52:                                               ; preds = %48
  %53 = load i32, i32* %4, align 4
  %54 = sext i32 %53 to i64
  %55 = getelementptr inbounds [10 x i8], [10 x i8]* @str, i64 0, i64 %54
  %56 = load i8, i8* %55, align 1
  %57 = load i32, i32* %4, align 4
  %58 = sext i32 %57 to i64
  %59 = getelementptr inbounds [13 x i8], [13 x i8]* @a, i64 0, i64 %58
  store i8 %56, i8* %59, align 1
  br label %60

60:                                               ; preds = %52
  %61 = load i32, i32* %4, align 4
  %62 = add nsw i32 %61, 1
  store i32 %62, i32* %4, align 4
  br label %48

63:                                               ; preds = %48
  %64 = load i32, i32* %3, align 4
  %65 = add nsw i32 %64, 4
  store i32 %65, i32* %5, align 4
  br label %66

66:                                               ; preds = %80, %63
  %67 = load i32, i32* %5, align 4
  %68 = load i32, i32* %2, align 4
  %69 = add nsw i32 %68, 2
  %70 = icmp sle i32 %67, %69
  br i1 %70, label %71, label %83

71:                                               ; preds = %66
  %72 = load i32, i32* %5, align 4
  %73 = sub nsw i32 %72, 3
  %74 = sext i32 %73 to i64
  %75 = getelementptr inbounds [10 x i8], [10 x i8]* @str, i64 0, i64 %74
  %76 = load i8, i8* %75, align 1
  %77 = load i32, i32* %5, align 4
  %78 = sext i32 %77 to i64
  %79 = getelementptr inbounds [13 x i8], [13 x i8]* @a, i64 0, i64 %78
  store i8 %76, i8* %79, align 1
  br label %80

80:                                               ; preds = %71
  %81 = load i32, i32* %5, align 4
  %82 = add nsw i32 %81, 1
  store i32 %82, i32* %5, align 4
  br label %66

83:                                               ; preds = %66
  %84 = load i32, i32* %3, align 4
  %85 = add nsw i32 %84, 1
  store i32 %85, i32* %4, align 4
  br label %86

86:                                               ; preds = %101, %83
  %87 = load i32, i32* %4, align 4
  %88 = load i32, i32* %3, align 4
  %89 = add nsw i32 %88, 3
  %90 = icmp sle i32 %87, %89
  br i1 %90, label %91, label %104

91:                                               ; preds = %86
  %92 = load i32, i32* %6, align 4
  %93 = sext i32 %92 to i64
  %94 = getelementptr inbounds [3 x i8], [3 x i8]* @substr, i64 0, i64 %93
  %95 = load i8, i8* %94, align 1
  %96 = load i32, i32* %4, align 4
  %97 = sext i32 %96 to i64
  %98 = getelementptr inbounds [13 x i8], [13 x i8]* @a, i64 0, i64 %97
  store i8 %95, i8* %98, align 1
  %99 = load i32, i32* %6, align 4
  %100 = add nsw i32 %99, 1
  store i32 %100, i32* %6, align 4
  br label %101

101:                                              ; preds = %91
  %102 = load i32, i32* %4, align 4
  %103 = add nsw i32 %102, 1
  store i32 %103, i32* %4, align 4
  br label %86

104:                                              ; preds = %86
  ret void
}

declare dso_local i32 @printf(i8*, ...) #1


!llvm.module.flags = !{!0}
!llvm.ident = !{!1}

!0 = !{i32 1, !"wchar_size", i32 4}
!1 = !{!"clang version 10.0.0-4ubuntu1 "}
